target datalayout = "e-m:e-p270:32:32-p271:32:32-p272:64:64-i64:64-i128:128-f80:128-n8:16:32:64-S128"
target triple = "x86_64-pc-linux-gnu"

%"class.llvm::SmallVectorBase" = type { ptr, i32, i32 }
%"class.llvm::ilist_node_base" = type { %"class.llvm::ilist_detail::node_base_prevnext" }
%"class.llvm::ilist_detail::node_base_prevnext" = type { ptr, ptr }
%"class.llvm::SDValue" = type <{ ptr, i32, [4 x i8] }>
%"class.llvm::SmallVectorImpl.116" = type { %"class.llvm::SmallVectorTemplateBase.117" }
%"class.llvm::SmallVectorTemplateBase.117" = type { %"class.llvm::SmallVectorTemplateCommon.118" }
%"class.llvm::SmallVectorTemplateCommon.118" = type { %"class.llvm::SmallVectorBase" }
%"class.llvm::SmallVector.120" = type { %"class.llvm::SmallVectorImpl.116", %"struct.llvm::SmallVectorStorage.121" }
%"struct.llvm::SmallVectorStorage.121" = type { [128 x i8] }
%"class.llvm::SelectionDAG" = type { ptr, ptr, ptr, ptr, ptr, ptr, ptr, ptr, ptr, i32, ptr, ptr, ptr, ptr, ptr, ptr, %"class.llvm::FoldingSet", %"class.llvm::BumpPtrAllocatorImpl", %"class.llvm::SDNode", %"class.llvm::SDValue", %"class.llvm::iplist", %"class.llvm::RecyclingAllocator", %"class.llvm::FoldingSet.82", %"class.llvm::BumpPtrAllocatorImpl", %"class.llvm::ArrayRecycler", ptr, %"class.llvm::DenseMap.89", i16, i8, ptr, %"class.std::vector", %"class.std::vector.95", %"class.std::map.100", %"class.llvm::StringMap", %"class.std::map.106", %"class.llvm::DenseMap.112", ptr }
%"class.llvm::FoldingSet" = type { %"class.llvm::FoldingSetImpl" }
%"class.llvm::FoldingSetImpl" = type { %"class.llvm::FoldingSetBase" }
%"class.llvm::FoldingSetBase" = type { ptr, i32, i32 }
%"class.llvm::SDNode" = type { %"class.llvm::FoldingSetBase::Node", %"class.llvm::ilist_node", i32, %"struct.llvm::SDNodeFlags", %union.anon.81, i16, i32, ptr, ptr, ptr, i16, i16, i32, %"class.llvm::DebugLoc", i32, i32 }
%"class.llvm::FoldingSetBase::Node" = type { ptr }
%"class.llvm::ilist_node" = type { %"class.llvm::ilist_node_impl" }
%"class.llvm::ilist_node_impl" = type { %"class.llvm::ilist_node_base" }
%"struct.llvm::SDNodeFlags" = type { i16 }
%union.anon.81 = type { %"class.llvm::SDNode::LSBaseSDNodeBitfields" }
%"class.llvm::SDNode::LSBaseSDNodeBitfields" = type { i16 }
%"class.llvm::DebugLoc" = type { %"class.llvm::TypedTrackingMDRef" }
%"class.llvm::TypedTrackingMDRef" = type { %"class.llvm::TrackingMDRef" }
%"class.llvm::TrackingMDRef" = type { ptr }
%"class.llvm::iplist" = type { %"class.llvm::iplist_impl" }
%"class.llvm::iplist_impl" = type { %"class.llvm::simple_ilist" }
%"class.llvm::simple_ilist" = type { %"class.llvm::ilist_sentinel" }
%"class.llvm::ilist_sentinel" = type { %"class.llvm::ilist_node_impl" }
%"class.llvm::RecyclingAllocator" = type { %"class.llvm::Recycler", %"class.llvm::BumpPtrAllocatorImpl" }
%"class.llvm::Recycler" = type { ptr }
%"class.llvm::FoldingSet.82" = type { %"class.llvm::FoldingSetImpl.83" }
%"class.llvm::FoldingSetImpl.83" = type { %"class.llvm::FoldingSetBase" }
%"class.llvm::BumpPtrAllocatorImpl" = type { ptr, ptr, %"class.llvm::SmallVector.71", %"class.llvm::SmallVector.76", i64, i64 }
%"class.llvm::SmallVector.71" = type { %"class.llvm::SmallVectorImpl.72", %"struct.llvm::SmallVectorStorage.75" }
%"class.llvm::SmallVectorImpl.72" = type { %"class.llvm::SmallVectorTemplateBase.73" }
%"class.llvm::SmallVectorTemplateBase.73" = type { %"class.llvm::SmallVectorTemplateCommon.74" }
%"class.llvm::SmallVectorTemplateCommon.74" = type { %"class.llvm::SmallVectorBase" }
%"struct.llvm::SmallVectorStorage.75" = type { [32 x i8] }
%"class.llvm::SmallVector.76" = type { %"class.llvm::SmallVectorImpl.77" }
%"class.llvm::SmallVectorImpl.77" = type { %"class.llvm::SmallVectorTemplateBase.78" }
%"class.llvm::SmallVectorTemplateBase.78" = type { %"class.llvm::SmallVectorTemplateCommon.79" }
%"class.llvm::SmallVectorTemplateCommon.79" = type { %"class.llvm::SmallVectorBase" }
%"class.llvm::ArrayRecycler" = type { %"class.llvm::SmallVector.84" }
%"class.llvm::SmallVector.84" = type { %"class.llvm::SmallVectorImpl.85", %"struct.llvm::SmallVectorStorage.88" }
%"class.llvm::SmallVectorImpl.85" = type { %"class.llvm::SmallVectorTemplateBase.86" }
%"class.llvm::SmallVectorTemplateBase.86" = type { %"class.llvm::SmallVectorTemplateCommon.87" }
%"class.llvm::SmallVectorTemplateCommon.87" = type { %"class.llvm::SmallVectorBase" }
%"struct.llvm::SmallVectorStorage.88" = type { [64 x i8] }
%"class.llvm::DenseMap.89" = type <{ ptr, i32, i32, i32, [4 x i8] }>
%"class.std::vector" = type { %"struct.std::_Vector_base" }
%"struct.std::_Vector_base" = type { %"struct.std::_Vector_base<llvm::CondCodeSDNode *, std::allocator<llvm::CondCodeSDNode *>>::_Vector_impl" }
%"struct.std::_Vector_base<llvm::CondCodeSDNode *, std::allocator<llvm::CondCodeSDNode *>>::_Vector_impl" = type { %"struct.std::_Vector_base<llvm::CondCodeSDNode *, std::allocator<llvm::CondCodeSDNode *>>::_Vector_impl_data" }
%"struct.std::_Vector_base<llvm::CondCodeSDNode *, std::allocator<llvm::CondCodeSDNode *>>::_Vector_impl_data" = type { ptr, ptr, ptr }
%"class.std::vector.95" = type { %"struct.std::_Vector_base.96" }
%"struct.std::_Vector_base.96" = type { %"struct.std::_Vector_base<llvm::SDNode *, std::allocator<llvm::SDNode *>>::_Vector_impl" }
%"struct.std::_Vector_base<llvm::SDNode *, std::allocator<llvm::SDNode *>>::_Vector_impl" = type { %"struct.std::_Vector_base<llvm::SDNode *, std::allocator<llvm::SDNode *>>::_Vector_impl_data" }
%"struct.std::_Vector_base<llvm::SDNode *, std::allocator<llvm::SDNode *>>::_Vector_impl_data" = type { ptr, ptr, ptr }
%"class.std::map.100" = type { %"class.std::_Rb_tree.101" }
%"class.std::_Rb_tree.101" = type { %"struct.std::_Rb_tree<llvm::EVT, std::pair<const llvm::EVT, llvm::SDNode *>, std::_Select1st<std::pair<const llvm::EVT, llvm::SDNode *>>, llvm::EVT::compareRawBits>::_Rb_tree_impl" }
%"struct.std::_Rb_tree<llvm::EVT, std::pair<const llvm::EVT, llvm::SDNode *>, std::_Select1st<std::pair<const llvm::EVT, llvm::SDNode *>>, llvm::EVT::compareRawBits>::_Rb_tree_impl" = type { [8 x i8], %"struct.std::_Rb_tree_header" }
%"struct.std::_Rb_tree_header" = type { %"struct.std::_Rb_tree_node_base", i64 }
%"struct.std::_Rb_tree_node_base" = type { i32, ptr, ptr, ptr }
%"class.llvm::StringMap" = type { %"class.llvm::StringMapImpl" }
%"class.llvm::StringMapImpl" = type { ptr, i32, i32, i32, i32 }
%"class.std::map.106" = type { %"class.std::_Rb_tree.107" }
%"class.std::_Rb_tree.107" = type { %"struct.std::_Rb_tree<std::pair<std::__cxx11::basic_string<char>, unsigned int>, std::pair<const std::pair<std::__cxx11::basic_string<char>, unsigned int>, llvm::SDNode *>, std::_Select1st<std::pair<const std::pair<std::__cxx11::basic_string<char>, unsigned int>, llvm::SDNode *>>, std::less<std::pair<std::__cxx11::basic_string<char>, unsigned int>>>::_Rb_tree_impl" }
%"struct.std::_Rb_tree<std::pair<std::__cxx11::basic_string<char>, unsigned int>, std::pair<const std::pair<std::__cxx11::basic_string<char>, unsigned int>, llvm::SDNode *>, std::_Select1st<std::pair<const std::pair<std::__cxx11::basic_string<char>, unsigned int>, llvm::SDNode *>>, std::less<std::pair<std::__cxx11::basic_string<char>, unsigned int>>>::_Rb_tree_impl" = type { [8 x i8], %"struct.std::_Rb_tree_header" }
%"class.llvm::DenseMap.112" = type <{ ptr, i32, i32, i32, [4 x i8] }>
%"class.llvm::SelectionDAGBuilder" = type { ptr, %"class.llvm::DenseMap.362", %"class.llvm::DenseMap.362", %"class.llvm::MapVector", i8, %"class.llvm::SmallVector.120", %"class.llvm::StatepointLoweringState", %"class.llvm::SmallVector.120", %"class.llvm::SmallVector.120", %"class.llvm::SmallVector.120", i32, ptr, ptr, ptr, ptr, ptr, %"class.std::unique_ptr.381", %"class.llvm::StackProtectorDescriptor", %"class.llvm::DenseMap.389", ptr, ptr, ptr, %"class.llvm::DenseMap.392", i8, ptr }
%"class.llvm::DenseMap.362" = type <{ ptr, i32, i32, i32, [4 x i8] }>
%"class.llvm::MapVector" = type { %"class.llvm::DenseMap.365", %"class.llvm::SmallVector.368" }
%"class.llvm::DenseMap.365" = type <{ ptr, i32, i32, i32, [4 x i8] }>
%"class.llvm::SmallVector.368" = type { %"class.llvm::SmallVectorImpl.369" }
%"class.llvm::SmallVectorImpl.369" = type { %"class.llvm::SmallVectorTemplateBase.370" }
%"class.llvm::SmallVectorTemplateBase.370" = type { %"class.llvm::SmallVectorTemplateCommon.371" }
%"class.llvm::SmallVectorTemplateCommon.371" = type { %"class.llvm::SmallVectorBase" }
%"class.llvm::StatepointLoweringState" = type { %"class.llvm::DenseMap.373", %"class.llvm::SmallBitVector", i32, %"class.llvm::SmallVector.376" }
%"class.llvm::DenseMap.373" = type <{ ptr, i32, i32, i32, [4 x i8] }>
%"class.llvm::SmallBitVector" = type { i64 }
%"class.llvm::SmallVector.376" = type { %"class.llvm::SmallVectorImpl.377", %"struct.llvm::SmallVectorStorage.380" }
%"class.llvm::SmallVectorImpl.377" = type { %"class.llvm::SmallVectorTemplateBase.378" }
%"class.llvm::SmallVectorTemplateBase.378" = type { %"class.llvm::SmallVectorTemplateCommon.379" }
%"class.llvm::SmallVectorTemplateCommon.379" = type { %"class.llvm::SmallVectorBase" }
%"struct.llvm::SmallVectorStorage.380" = type { [80 x i8] }
%"class.std::unique_ptr.381" = type { %"struct.std::__uniq_ptr_data.382" }
%"struct.std::__uniq_ptr_data.382" = type { %"class.std::__uniq_ptr_impl.383" }
%"class.std::__uniq_ptr_impl.383" = type { %"class.std::tuple.384" }
%"class.std::tuple.384" = type { %"struct.std::_Tuple_impl.385" }
%"struct.std::_Tuple_impl.385" = type { %"struct.std::_Head_base.388" }
%"struct.std::_Head_base.388" = type { ptr }
%"class.llvm::StackProtectorDescriptor" = type { ptr, ptr, ptr }
%"class.llvm::DenseMap.389" = type <{ ptr, i32, i32, i32, [4 x i8] }>
%"class.llvm::DenseMap.392" = type <{ ptr, i32, i32, i32, [4 x i8] }>

; Function Attrs: mustprogress nounwind uwtable
define linkonce_odr hidden noundef nonnull align 8 dereferenceable(12) ptr @_ZN4llvm12SelectionDAG7setRootENS_7SDValueE(ptr noundef nonnull align 8 dereferenceable(904) %0, ptr %1, i32 %2) #1 comdat align 2 {
  %4 = alloca %"class.llvm::SDValue", align 8
  %5 = alloca ptr, align 8
  %6 = getelementptr inbounds nuw { ptr, i32 }, ptr %4, i32 0, i32 0
  store ptr %1, ptr %6, align 8
  %7 = getelementptr inbounds nuw { ptr, i32 }, ptr %4, i32 0, i32 1
  store i32 %2, ptr %7, align 8
  store ptr %0, ptr %5, align 8
  %8 = load ptr, ptr %5, align 8
  %9 = call noundef ptr @_ZNK4llvm7SDValue7getNodeEv(ptr noundef nonnull align 8 dereferenceable(12) %4)
  %10 = icmp ne ptr %9, null
  br i1 %10, label %11, label %13

11:                                               ; preds = %3
  %12 = call noundef ptr @_ZNK4llvm7SDValue7getNodeEv(ptr noundef nonnull align 8 dereferenceable(12) %4)
  call void @_ZN4llvm14checkForCyclesEPKNS_6SDNodeEPKNS_12SelectionDAGEb(ptr noundef %12, ptr noundef %8, i1 noundef zeroext false)
  br label %13

13:                                               ; preds = %11, %3
  %14 = getelementptr inbounds nuw %"class.llvm::SelectionDAG", ptr %8, i32 0, i32 19
  call void @llvm.memcpy.p0.p0.i64(ptr align 8 %14, ptr align 8 %4, i64 12, i1 false)
  %15 = call noundef ptr @_ZNK4llvm7SDValue7getNodeEv(ptr noundef nonnull align 8 dereferenceable(12) %4)
  %16 = icmp ne ptr %15, null
  br i1 %16, label %17, label %18

17:                                               ; preds = %13
  call void @_ZN4llvm14checkForCyclesEPKNS_12SelectionDAGEb(ptr noundef %8, i1 noundef zeroext false)
  br label %18

18:                                               ; preds = %17, %13
  %19 = getelementptr inbounds nuw %"class.llvm::SelectionDAG", ptr %8, i32 0, i32 19
  ret ptr %19
}

; Function Attrs: mustprogress nounwind uwtable
define linkonce_odr hidden noundef ptr @_ZNK4llvm7SDValue7getNodeEv(ptr noundef nonnull align 8 dereferenceable(12) %0) #1 comdat align 2 {
  %2 = alloca ptr, align 8
  store ptr %0, ptr %2, align 8
  %3 = load ptr, ptr %2, align 8
  %4 = getelementptr inbounds nuw %"class.llvm::SDValue", ptr %3, i32 0, i32 0
  %5 = load ptr, ptr %4, align 8
  ret ptr %5
}

; Function Attrs: mustprogress nounwind uwtable
define dso_local void @_ZN4llvm19SelectionDAGBuilder25updateDAGForMaybeTailCallENS_7SDValueE(ptr noundef nonnull align 8 dereferenceable(984) %0, ptr %1, i32 %2) #1 align 2 {
  %4 = alloca %"class.llvm::SDValue", align 8
  %5 = alloca ptr, align 8
  %6 = alloca %"class.llvm::SDValue", align 8
  %7 = getelementptr inbounds nuw { ptr, i32 }, ptr %4, i32 0, i32 0
  store ptr %1, ptr %7, align 8
  %8 = getelementptr inbounds nuw { ptr, i32 }, ptr %4, i32 0, i32 1
  store i32 %2, ptr %8, align 8
  store ptr %0, ptr %5, align 8
  %9 = load ptr, ptr %5, align 8
  %10 = call noundef ptr @_ZNK4llvm7SDValue7getNodeEv(ptr noundef nonnull align 8 dereferenceable(12) %4)
  %11 = icmp ne ptr %10, null
  br i1 %11, label %12, label %20

12:                                               ; preds = %3
  %13 = getelementptr inbounds nuw %"class.llvm::SelectionDAGBuilder", ptr %9, i32 0, i32 12
  %14 = load ptr, ptr %13, align 8
  call void @llvm.memcpy.p0.p0.i64(ptr align 8 %6, ptr align 8 %4, i64 16, i1 false)
  %15 = getelementptr inbounds nuw { ptr, i32 }, ptr %6, i32 0, i32 0
  %16 = load ptr, ptr %15, align 8
  %17 = getelementptr inbounds nuw { ptr, i32 }, ptr %6, i32 0, i32 1
  %18 = load i32, ptr %17, align 8
  %19 = call noundef nonnull align 8 dereferenceable(12) ptr @_ZN4llvm12SelectionDAG7setRootENS_7SDValueE(ptr noundef nonnull align 8 dereferenceable(904) %14, ptr %16, i32 %18)
  br label %22

20:                                               ; preds = %3
  %21 = getelementptr inbounds nuw %"class.llvm::SelectionDAGBuilder", ptr %9, i32 0, i32 23
  store i8 1, ptr %21, align 8
  br label %22

22:                                               ; preds = %20, %12
  ret void
}