; Function Attrs: mustprogress nounwind uwtable
define dso_local void @_ZN4llvm19SelectionDAGBuilder25updateDAGForMaybeTailCallENS_7SDValueE(ptr nocapture noundef nonnull align 8 dereferenceable(984) %0, ptr %1, i32 %2) local_unnamed_addr #0 align 2 {
  %.not = icmp eq ptr %1, null
  br i1 %.not, label %7, label %_ZN4llvm12SelectionDAG7setRootENS_7SDValueE.exit

_ZN4llvm12SelectionDAG7setRootENS_7SDValueE.exit: ; preds = %3
  %4 = getelementptr inbounds nuw i8, ptr %0, i64 832
  %5 = load ptr, ptr %4, align 8
  tail call void @_ZN4llvm14checkForCyclesEPKNS_6SDNodeEPKNS_12SelectionDAGEb(ptr noundef nonnull %1, ptr noundef nonnull %5, i1 noundef zeroext false) #32
  %6 = getelementptr inbounds nuw i8, ptr %5, i64 328
  store ptr %1, ptr %6, align 8
  %.sroa.5.0..sroa_idx.i = getelementptr inbounds i8, ptr %5, i64 336
  store i32 %2, ptr %.sroa.5.0..sroa_idx.i, align 8
  tail call void @_ZN4llvm14checkForCyclesEPKNS_12SelectionDAGEb(ptr noundef nonnull %5, i1 noundef zeroext false) #32
  br label %9

7:                                                ; preds = %3
  %8 = getelementptr inbounds nuw i8, ptr %0, i64 968
  store i8 1, ptr %8, align 8
  br label %9

9:                                                ; preds = %7, %_ZN4llvm12SelectionDAG7setRootENS_7SDValueE.exit
  ret void
}